target datalayout = "e-m:e-p270:32:32-p271:32:32-p272:64:64-i64:64-i128:128-f80:128-n8:16:32:64-S128"
target triple = "x86_64-pc-linux-gnu"

%struct.AVFormatContext = type { ptr, ptr, ptr, ptr, ptr, i32, i32, ptr, i32, ptr, i32, ptr, ptr, i64, i64, i64, i32, i32, i32, i64, i64, ptr, i32, i32, ptr, i32, i32, i32, i32, ptr, i64, i32, i32, %struct.AVIOInterruptCB, i32, i32, i32, i32, i64, i32, i32, i32, i32, i32, i32, i32, i32, i32, i32, i32, i32, i64, i32, i32, i32, i32, i32, ptr, ptr, ptr, ptr, i32, ptr, ptr, ptr, ptr, i32, ptr, ptr, i64, ptr, ptr, ptr, i64 }
%struct.AVIOInterruptCB = type { ptr, ptr }
%struct.AVStream = type { ptr, i32, i32, ptr, ptr, %struct.AVRational, i64, i64, i64, i32, i32, %struct.AVRational, ptr, %struct.AVRational, %struct.AVPacket, i32, %struct.AVRational, i32 }
%struct.AVPacket = type { ptr, i64, i64, ptr, i32, i32, i32, ptr, i32, i64, i64, ptr, ptr, %struct.AVRational }
%struct.AVRational = type { i32, i32 }
%struct.FFStream = type { %struct.AVStream, ptr, i32, ptr, i32, ptr, i32, %struct.anon, i32, i32, %struct.FFFrac, ptr, ptr, i32, i32, i64, i64, i32, i32, i32, i64, i64, i64, i32, i64, i64, i64, i32, i32, [17 x i64], [17 x i8], [17 x i64], i64, i8, i8, %struct.AVRational, %struct.AVProbeData, ptr, i64, i32, i32, i32, ptr, i32, i32, i64, i64, ptr, %struct.AVRational }
%struct.anon = type { ptr, i32 }
%struct.FFFrac = type { i64, i64, i64 }
%struct.AVProbeData = type { ptr, ptr, i32, ptr }
%struct.FFInputFormat = type { %struct.AVInputFormat, i32, i32, i32, ptr, ptr, ptr, ptr, ptr, ptr, ptr, ptr, ptr, ptr }
%struct.AVInputFormat = type { ptr, ptr, i32, ptr, ptr, ptr, ptr }

; Function Attrs: alwaysinline nounwind uwtable
define internal ptr @ffstream(ptr noundef %0) #2 {
  %2 = alloca ptr, align 8
  store ptr %0, ptr %2, align 8, !tbaa !9
  %3 = load ptr, ptr %2, align 8, !tbaa !9
  ret ptr %3
}

; Function Attrs: nounwind uwtable
define void @ff_read_frame_flush(ptr noundef %0) #0 {
  %2 = alloca ptr, align 8
  %3 = alloca i32, align 4
  %4 = alloca i32, align 4
  %5 = alloca ptr, align 8
  %6 = alloca ptr, align 8
  %7 = alloca i32, align 4
  store ptr %0, ptr %2, align 8, !tbaa !4
  %8 = load ptr, ptr %2, align 8, !tbaa !4
  call void @ff_flush_packet_queue(ptr noundef %8)
  call void @llvm.lifetime.start.p0(i64 4, ptr %3) #11
  store i32 0, ptr %3, align 4, !tbaa !13
  br label %9

9:                                                ; preds = %73, %1
  %10 = load i32, ptr %3, align 4, !tbaa !13
  %11 = load ptr, ptr %2, align 8, !tbaa !4
  %12 = getelementptr inbounds nuw %struct.AVFormatContext, ptr %11, i32 0, i32 6
  %13 = load i32, ptr %12, align 4, !tbaa !15
  %14 = icmp ult i32 %10, %13
  br i1 %14, label %16, label %15

15:                                               ; preds = %9
  store i32 2, ptr %4, align 4
  call void @llvm.lifetime.end.p0(i64 4, ptr %3) #11
  br label %76

16:                                               ; preds = %9
  call void @llvm.lifetime.start.p0(i64 8, ptr %5) #11
  %17 = load ptr, ptr %2, align 8, !tbaa !4
  %18 = getelementptr inbounds nuw %struct.AVFormatContext, ptr %17, i32 0, i32 7
  %19 = load ptr, ptr %18, align 8, !tbaa !30
  %20 = load i32, ptr %3, align 4, !tbaa !13
  %21 = zext i32 %20 to i64
  %22 = getelementptr inbounds nuw ptr, ptr %19, i64 %21
  %23 = load ptr, ptr %22, align 8, !tbaa !9
  store ptr %23, ptr %5, align 8, !tbaa !9
  call void @llvm.lifetime.start.p0(i64 8, ptr %6) #11
  %24 = load ptr, ptr %5, align 8, !tbaa !9
  %25 = call ptr @ffstream(ptr noundef %24)
  store ptr %25, ptr %6, align 8, !tbaa !31
  %26 = load ptr, ptr %6, align 8, !tbaa !31
  %27 = getelementptr inbounds nuw %struct.FFStream, ptr %26, i32 0, i32 42
  %28 = load ptr, ptr %27, align 8, !tbaa !107
  %29 = icmp ne ptr %28, null
  br i1 %29, label %30, label %36

30:                                               ; preds = %16
  %31 = load ptr, ptr %6, align 8, !tbaa !31
  %32 = getelementptr inbounds nuw %struct.FFStream, ptr %31, i32 0, i32 42
  %33 = load ptr, ptr %32, align 8, !tbaa !107
  call void @av_parser_close(ptr noundef %33)
  %34 = load ptr, ptr %6, align 8, !tbaa !31
  %35 = getelementptr inbounds nuw %struct.FFStream, ptr %34, i32 0, i32 42
  store ptr null, ptr %35, align 8, !tbaa !107
  br label %36

36:                                               ; preds = %30, %16
  %37 = load ptr, ptr %6, align 8, !tbaa !31
  %38 = getelementptr inbounds nuw %struct.FFStream, ptr %37, i32 0, i32 38
  store i64 -9223372036854775808, ptr %38, align 8, !tbaa !108
  %39 = load ptr, ptr %6, align 8, !tbaa !31
  %40 = getelementptr inbounds nuw %struct.FFStream, ptr %39, i32 0, i32 32
  store i64 -9223372036854775808, ptr %40, align 8, !tbaa !109
  %41 = load ptr, ptr %6, align 8, !tbaa !31
  %42 = getelementptr inbounds nuw %struct.FFStream, ptr %41, i32 0, i32 45
  %43 = load i64, ptr %42, align 8, !tbaa !110
  %44 = icmp eq i64 %43, -9223372036854775808
  br i1 %44, label %45, label %48

45:                                               ; preds = %36
  %46 = load ptr, ptr %6, align 8, !tbaa !31
  %47 = getelementptr inbounds nuw %struct.FFStream, ptr %46, i32 0, i32 46
  store i64 9223090561878065151, ptr %47, align 8, !tbaa !41
  br label %51

48:                                               ; preds = %36
  %49 = load ptr, ptr %6, align 8, !tbaa !31
  %50 = getelementptr inbounds nuw %struct.FFStream, ptr %49, i32 0, i32 46
  store i64 -9223372036854775808, ptr %50, align 8, !tbaa !41
  br label %51

51:                                               ; preds = %48, %45
  %52 = load ptr, ptr %2, align 8, !tbaa !4
  %53 = getelementptr inbounds nuw %struct.AVFormatContext, ptr %52, i32 0, i32 42
  %54 = load i32, ptr %53, align 4, !tbaa !111
  %55 = load ptr, ptr %6, align 8, !tbaa !31
  %56 = getelementptr inbounds nuw %struct.FFStream, ptr %55, i32 0, i32 40
  store i32 %54, ptr %56, align 4, !tbaa !112
  call void @llvm.lifetime.start.p0(i64 4, ptr %7) #11
  store i32 0, ptr %7, align 4, !tbaa !13
  br label %57

57:                                               ; preds = %67, %51
  %58 = load i32, ptr %7, align 4, !tbaa !13
  %59 = icmp slt i32 %58, 17
  br i1 %59, label %61, label %60

60:                                               ; preds = %57
  store i32 5, ptr %4, align 4
  call void @llvm.lifetime.end.p0(i64 4, ptr %7) #11
  br label %70

61:                                               ; preds = %57
  %62 = load ptr, ptr %6, align 8, !tbaa !31
  %63 = getelementptr inbounds nuw %struct.FFStream, ptr %62, i32 0, i32 31
  %64 = load i32, ptr %7, align 4, !tbaa !13
  %65 = sext i32 %64 to i64
  %66 = getelementptr inbounds [17 x i64], ptr %63, i64 0, i64 %65
  store i64 -9223372036854775808, ptr %66, align 8, !tbaa !11
  br label %67

67:                                               ; preds = %61
  %68 = load i32, ptr %7, align 4, !tbaa !13
  %69 = add nsw i32 %68, 1
  store i32 %69, ptr %7, align 4, !tbaa !13
  br label %57, !llvm.loop !113

70:                                               ; preds = %60
  %71 = load ptr, ptr %6, align 8, !tbaa !31
  %72 = getelementptr inbounds nuw %struct.FFStream, ptr %71, i32 0, i32 19
  store i32 0, ptr %72, align 8, !tbaa !114
  call void @llvm.lifetime.end.p0(i64 8, ptr %6) #11
  call void @llvm.lifetime.end.p0(i64 8, ptr %5) #11
  br label %73

73:                                               ; preds = %70
  %74 = load i32, ptr %3, align 4, !tbaa !13
  %75 = add i32 %74, 1
  store i32 %75, ptr %3, align 4, !tbaa !13
  br label %9, !llvm.loop !115

76:                                               ; preds = %15
  ret void
}

; Function Attrs: inlinehint nounwind uwtable
define internal ptr @ffifmt(ptr noundef %0) #8 {
  %2 = alloca ptr, align 8
  store ptr %0, ptr %2, align 8, !tbaa !96
  %3 = load ptr, ptr %2, align 8, !tbaa !96
  ret ptr %3
}

; Function Attrs: nounwind uwtable
define i32 @avformat_seek_file(ptr noundef %0, i32 noundef %1, i64 noundef %2, i64 noundef %3, i64 noundef %4, i32 noundef %5) #0 {
  %7 = alloca i32, align 4
  %8 = alloca ptr, align 8
  %9 = alloca i32, align 4
  %10 = alloca i64, align 8
  %11 = alloca i64, align 8
  %12 = alloca i64, align 8
  %13 = alloca i32, align 4
  %14 = alloca i32, align 4
  %15 = alloca i32, align 4
  %16 = alloca i32, align 4
  %17 = alloca i32, align 4
  %18 = alloca %struct.AVRational, align 4
  %19 = alloca %struct.AVRational, align 4
  store ptr %0, ptr %8, align 8, !tbaa !4
  store i32 %1, ptr %9, align 4, !tbaa !13
  store i64 %2, ptr %10, align 8, !tbaa !11
  store i64 %3, ptr %11, align 8, !tbaa !11
  store i64 %4, ptr %12, align 8, !tbaa !11
  store i32 %5, ptr %13, align 4, !tbaa !13
  call void @llvm.lifetime.start.p0(i64 4, ptr %14) #11
  call void @llvm.lifetime.start.p0(i64 4, ptr %15) #11
  %20 = load i64, ptr %10, align 8, !tbaa !11
  %21 = load i64, ptr %11, align 8, !tbaa !11
  %22 = icmp sgt i64 %20, %21
  br i1 %22, label %27, label %23

23:                                               ; preds = %6
  %24 = load i64, ptr %12, align 8, !tbaa !11
  %25 = load i64, ptr %11, align 8, !tbaa !11
  %26 = icmp slt i64 %24, %25
  br i1 %26, label %27, label %28

27:                                               ; preds = %23, %6
  store i32 -1, ptr %7, align 4
  store i32 1, ptr %16, align 4
  br label %172

28:                                               ; preds = %23
  %29 = load i32, ptr %9, align 4, !tbaa !13
  %30 = icmp slt i32 %29, -1
  br i1 %30, label %37, label %31

31:                                               ; preds = %28
  %32 = load i32, ptr %9, align 4, !tbaa !13
  %33 = load ptr, ptr %8, align 8, !tbaa !4
  %34 = getelementptr inbounds nuw %struct.AVFormatContext, ptr %33, i32 0, i32 6
  %35 = load i32, ptr %34, align 4, !tbaa !15
  %36 = icmp sge i32 %32, %35
  br i1 %36, label %37, label %38

37:                                               ; preds = %31, %28
  store i32 -22, ptr %7, align 4
  store i32 1, ptr %16, align 4
  br label %172

38:                                               ; preds = %31
  %39 = load ptr, ptr %8, align 8, !tbaa !4
  %40 = getelementptr inbounds nuw %struct.AVFormatContext, ptr %39, i32 0, i32 53
  %41 = load i32, ptr %40, align 4, !tbaa !119
  %42 = icmp sgt i32 %41, 0
  br i1 %42, label %43, label %46

43:                                               ; preds = %38
  %44 = load i32, ptr %13, align 4, !tbaa !13
  %45 = or i32 %44, 4
  store i32 %45, ptr %13, align 4, !tbaa !13
  br label %46

46:                                               ; preds = %43, %38
  %47 = load i32, ptr %13, align 4, !tbaa !13
  %48 = and i32 %47, -2
  store i32 %48, ptr %13, align 4, !tbaa !13
  %49 = load ptr, ptr %8, align 8, !tbaa !4
  %50 = getelementptr inbounds nuw %struct.AVFormatContext, ptr %49, i32 0, i32 1
  %51 = load ptr, ptr %50, align 8, !tbaa !89
  %52 = call ptr @ffifmt(ptr noundef %51)
  %53 = getelementptr inbounds nuw %struct.FFInputFormat, ptr %52, i32 0, i32 12
  %54 = load ptr, ptr %53, align 8, !tbaa !117
  %55 = icmp ne ptr %54, null
  br i1 %55, label %56, label %117

56:                                               ; preds = %46
  call void @llvm.lifetime.start.p0(i64 4, ptr %17) #11
  %57 = load ptr, ptr %8, align 8, !tbaa !4
  call void @ff_read_frame_flush(ptr noundef %57)
  %58 = load i32, ptr %9, align 4, !tbaa !13
  %59 = icmp eq i32 %58, -1
  br i1 %59, label %60, label %96

60:                                               ; preds = %56
  %61 = load ptr, ptr %8, align 8, !tbaa !4
  %62 = getelementptr inbounds nuw %struct.AVFormatContext, ptr %61, i32 0, i32 6
  %63 = load i32, ptr %62, align 4, !tbaa !15
  %64 = icmp eq i32 %63, 1
  br i1 %64, label %65, label %96

65:                                               ; preds = %60
  call void @llvm.lifetime.start.p0(i64 8, ptr %18) #11
  %66 = load ptr, ptr %8, align 8, !tbaa !4
  %67 = getelementptr inbounds nuw %struct.AVFormatContext, ptr %66, i32 0, i32 7
  %68 = load ptr, ptr %67, align 8, !tbaa !30
  %69 = getelementptr inbounds ptr, ptr %68, i64 0
  %70 = load ptr, ptr %69, align 8, !tbaa !9
  %71 = getelementptr inbounds nuw %struct.AVStream, ptr %70, i32 0, i32 5
  call void @llvm.memcpy.p0.p0.i64(ptr align 4 %18, ptr align 8 %71, i64 8, i1 false), !tbaa.struct !120
  %72 = load i64, ptr %11, align 8, !tbaa !11
  %73 = getelementptr inbounds nuw %struct.AVRational, ptr %19, i32 0, i32 0
  store i32 1, ptr %73, align 4, !tbaa !75
  %74 = getelementptr inbounds nuw %struct.AVRational, ptr %19, i32 0, i32 1
  store i32 1000000, ptr %74, align 4, !tbaa !76
  %75 = load i64, ptr %19, align 4
  %76 = load i64, ptr %18, align 4
  %77 = call i64 @av_rescale_q(i64 noundef %72, i64 %75, i64 %76) #12
  store i64 %77, ptr %11, align 8, !tbaa !11
  %78 = load i64, ptr %10, align 8, !tbaa !11
  %79 = getelementptr inbounds nuw %struct.AVRational, ptr %18, i32 0, i32 1
  %80 = load i32, ptr %79, align 4, !tbaa !76
  %81 = sext i32 %80 to i64
  %82 = getelementptr inbounds nuw %struct.AVRational, ptr %18, i32 0, i32 0
  %83 = load i32, ptr %82, align 4, !tbaa !75
  %84 = sext i32 %83 to i64
  %85 = mul nsw i64 %84, 1000000
  %86 = call i64 @av_rescale_rnd(i64 noundef %78, i64 noundef %81, i64 noundef %85, i32 noundef 8195) #12
  store i64 %86, ptr %10, align 8, !tbaa !11
  %87 = load i64, ptr %12, align 8, !tbaa !11
  %88 = getelementptr inbounds nuw %struct.AVRational, ptr %18, i32 0, i32 1
  %89 = load i32, ptr %88, align 4, !tbaa !76
  %90 = sext i32 %89 to i64
  %91 = getelementptr inbounds nuw %struct.AVRational, ptr %18, i32 0, i32 0
  %92 = load i32, ptr %91, align 4, !tbaa !75
  %93 = sext i32 %92 to i64
  %94 = mul nsw i64 %93, 1000000
  %95 = call i64 @av_rescale_rnd(i64 noundef %87, i64 noundef %90, i64 noundef %94, i32 noundef 8194) #12
  store i64 %95, ptr %12, align 8, !tbaa !11
  store i32 0, ptr %9, align 4, !tbaa !13
  call void @llvm.lifetime.end.p0(i64 8, ptr %18) #11
  br label %96

96:                                               ; preds = %65, %60, %56
  %97 = load ptr, ptr %8, align 8, !tbaa !4
  %98 = getelementptr inbounds nuw %struct.AVFormatContext, ptr %97, i32 0, i32 1
  %99 = load ptr, ptr %98, align 8, !tbaa !89
  %100 = call ptr @ffifmt(ptr noundef %99)
  %101 = getelementptr inbounds nuw %struct.FFInputFormat, ptr %100, i32 0, i32 12
  %102 = load ptr, ptr %101, align 8, !tbaa !117
  %103 = load ptr, ptr %8, align 8, !tbaa !4
  %104 = load i32, ptr %9, align 4, !tbaa !13
  %105 = load i64, ptr %10, align 8, !tbaa !11
  %106 = load i64, ptr %11, align 8, !tbaa !11
  %107 = load i64, ptr %12, align 8, !tbaa !11
  %108 = load i32, ptr %13, align 4, !tbaa !13
  %109 = call i32 %102(ptr noundef %103, i32 noundef %104, i64 noundef %105, i64 noundef %106, i64 noundef %107, i32 noundef %108)
  store i32 %109, ptr %17, align 4, !tbaa !13
  %110 = load i32, ptr %17, align 4, !tbaa !13
  %111 = icmp sge i32 %110, 0
  br i1 %111, label %112, label %115

112:                                              ; preds = %96
  %113 = load ptr, ptr %8, align 8, !tbaa !4
  %114 = call i32 @avformat_queue_attached_pictures(ptr noundef %113)
  store i32 %114, ptr %17, align 4, !tbaa !13
  br label %115

115:                                              ; preds = %112, %96
  %116 = load i32, ptr %17, align 4, !tbaa !13
  store i32 %116, ptr %7, align 4
  store i32 1, ptr %16, align 4
  call void @llvm.lifetime.end.p0(i64 4, ptr %17) #11
  br label %172

117:                                              ; preds = %46
  %118 = load i64, ptr %11, align 8, !tbaa !11
  %119 = load i64, ptr %10, align 8, !tbaa !11
  %120 = sub i64 %118, %119
  %121 = load i64, ptr %12, align 8, !tbaa !11
  %122 = load i64, ptr %11, align 8, !tbaa !11
  %123 = sub i64 %121, %122
  %124 = icmp ugt i64 %120, %123
  %125 = select i1 %124, i32 1, i32 0
  store i32 %125, ptr %14, align 4, !tbaa !13
  %126 = load ptr, ptr %8, align 8, !tbaa !4
  %127 = load i32, ptr %9, align 4, !tbaa !13
  %128 = load i64, ptr %11, align 8, !tbaa !11
  %129 = load i32, ptr %13, align 4, !tbaa !13
  %130 = load i32, ptr %14, align 4, !tbaa !13
  %131 = or i32 %129, %130
  %132 = call i32 @av_seek_frame(ptr noundef %126, i32 noundef %127, i64 noundef %128, i32 noundef %131)
  store i32 %132, ptr %15, align 4, !tbaa !13
  %133 = load i32, ptr %15, align 4, !tbaa !13
  %134 = icmp slt i32 %133, 0
  br i1 %134, label %135, label %170

135:                                              ; preds = %117
  %136 = load i64, ptr %11, align 8, !tbaa !11
  %137 = load i64, ptr %10, align 8, !tbaa !11
  %138 = icmp ne i64 %136, %137
  br i1 %138, label %139, label %170

139:                                              ; preds = %135
  %140 = load i64, ptr %12, align 8, !tbaa !11
  %141 = load i64, ptr %11, align 8, !tbaa !11
  %142 = icmp ne i64 %140, %141
  br i1 %142, label %143, label %170

143:                                              ; preds = %139
  %144 = load ptr, ptr %8, align 8, !tbaa !4
  %145 = load i32, ptr %9, align 4, !tbaa !13
  %146 = load i32, ptr %14, align 4, !tbaa !13
  %147 = icmp ne i32 %146, 0
  br i1 %147, label %148, label %150

148:                                              ; preds = %143
  %149 = load i64, ptr %12, align 8, !tbaa !11
  br label %152

150:                                              ; preds = %143
  %151 = load i64, ptr %10, align 8, !tbaa !11
  br label %152

152:                                              ; preds = %150, %148
  %153 = phi i64 [ %149, %148 ], [ %151, %150 ]
  %154 = load i32, ptr %13, align 4, !tbaa !13
  %155 = load i32, ptr %14, align 4, !tbaa !13
  %156 = or i32 %154, %155
  %157 = call i32 @av_seek_frame(ptr noundef %144, i32 noundef %145, i64 noundef %153, i32 noundef %156)
  store i32 %157, ptr %15, align 4, !tbaa !13
  %158 = load i32, ptr %15, align 4, !tbaa !13
  %159 = icmp sge i32 %158, 0
  br i1 %159, label %160, label %169

160:                                              ; preds = %152
  %161 = load ptr, ptr %8, align 8, !tbaa !4
  %162 = load i32, ptr %9, align 4, !tbaa !13
  %163 = load i64, ptr %11, align 8, !tbaa !11
  %164 = load i32, ptr %13, align 4, !tbaa !13
  %165 = load i32, ptr %14, align 4, !tbaa !13
  %166 = xor i32 %165, 1
  %167 = or i32 %164, %166
  %168 = call i32 @av_seek_frame(ptr noundef %161, i32 noundef %162, i64 noundef %163, i32 noundef %167)
  store i32 %168, ptr %15, align 4, !tbaa !13
  br label %169

169:                                              ; preds = %160, %152
  br label %170

170:                                              ; preds = %169, %139, %135, %117
  %171 = load i32, ptr %15, align 4, !tbaa !13
  store i32 %171, ptr %7, align 4
  store i32 1, ptr %16, align 4
  br label %172

172:                                              ; preds = %170, %115, %37, %27
  call void @llvm.lifetime.end.p0(i64 4, ptr %15) #11
  call void @llvm.lifetime.end.p0(i64 4, ptr %14) #11
  %173 = load i32, ptr %7, align 4
  ret i32 %173
}