; Function Attrs: nounwind uwtable
define i32 @avformat_seek_file(ptr noundef %0, i32 noundef %1, i64 noundef %2, i64 noundef %3, i64 noundef %4, i32 noundef %5) local_unnamed_addr #5 {
  %7 = icmp sgt i64 %2, %3
  %8 = icmp slt i64 %4, %3
  %or.cond = or i1 %7, %8
  br i1 %or.cond, label %88, label %9

9:                                                ; preds = %6
  %10 = icmp slt i32 %1, -1
  br i1 %10, label %88, label %11

11:                                               ; preds = %9
  %12 = getelementptr inbounds nuw i8, ptr %0, i64 44
  %13 = load i32, ptr %12, align 4, !tbaa !4
  %.not = icmp slt i32 %1, %13
  br i1 %.not, label %14, label %88

14:                                               ; preds = %11
  %15 = getelementptr inbounds nuw i8, ptr %0, i64 316
  %16 = load i32, ptr %15, align 4, !tbaa !108
  %17 = icmp sgt i32 %16, 0
  %18 = or i32 %5, 4
  %spec.select = select i1 %17, i32 %18, i32 %5
  %19 = and i32 %spec.select, -2
  %20 = getelementptr inbounds nuw i8, ptr %0, i64 8
  %21 = load ptr, ptr %20, align 8, !tbaa !75
  %22 = getelementptr inbounds nuw i8, ptr %21, i64 136
  %23 = load ptr, ptr %22, align 8, !tbaa !95
  %.not74 = icmp eq ptr %23, null
  br i1 %.not74, label %73, label %24

24:                                               ; preds = %14
  tail call void @ff_flush_packet_queue(ptr noundef nonnull %0) #17
  %25 = load i32, ptr %12, align 4, !tbaa !4
  %.not25.i = icmp eq i32 %25, 0
  br i1 %.not25.i, label %.thread, label %.lr.ph.i

.lr.ph.i:                                         ; preds = %24
  %26 = getelementptr inbounds nuw i8, ptr %0, i64 48
  %27 = getelementptr inbounds nuw i8, ptr %0, i64 268
  br label %28

28:                                               ; preds = %45, %.lr.ph.i
  %indvars.iv27.i = phi i64 [ 0, %.lr.ph.i ], [ %indvars.iv.next28.i, %45 ]
  %29 = load ptr, ptr %26, align 8, !tbaa !24
  %30 = getelementptr inbounds nuw ptr, ptr %29, i64 %indvars.iv27.i
  %31 = load ptr, ptr %30, align 8, !tbaa !33
  %32 = getelementptr inbounds nuw i8, ptr %31, i64 816
  %33 = load ptr, ptr %32, align 8, !tbaa !80
  %.not.i = icmp eq ptr %33, null
  br i1 %.not.i, label %35, label %34

34:                                               ; preds = %28
  tail call void @av_parser_close(ptr noundef nonnull %33) #17
  store ptr null, ptr %32, align 8, !tbaa !80
  br label %35

35:                                               ; preds = %34, %28
  %36 = getelementptr inbounds nuw i8, ptr %31, i64 792
  store i64 -9223372036854775808, ptr %36, align 8, !tbaa !81
  %37 = getelementptr inbounds nuw i8, ptr %31, i64 728
  store i64 -9223372036854775808, ptr %37, align 8, !tbaa !82
  %38 = getelementptr inbounds nuw i8, ptr %31, i64 832
  %39 = load i64, ptr %38, align 8, !tbaa !83
  %40 = icmp eq i64 %39, -9223372036854775808
  %spec.select.i = select i1 %40, i64 9223090561878065151, i64 -9223372036854775808
  %41 = getelementptr inbounds nuw i8, ptr %31, i64 840
  store i64 %spec.select.i, ptr %41, align 8, !tbaa !35
  %42 = load i32, ptr %27, align 4, !tbaa !84
  %43 = getelementptr inbounds nuw i8, ptr %31, i64 804
  store i32 %42, ptr %43, align 4, !tbaa !85
  %44 = getelementptr inbounds nuw i8, ptr %31, i64 592
  br label %50

45:                                               ; preds = %50
  %46 = getelementptr inbounds nuw i8, ptr %31, i64 360
  store i32 0, ptr %46, align 8, !tbaa !86
  %indvars.iv.next28.i = add nuw nsw i64 %indvars.iv27.i, 1
  %47 = load i32, ptr %12, align 4, !tbaa !4
  %48 = zext i32 %47 to i64
  %49 = icmp samesign ult i64 %indvars.iv.next28.i, %48
  br i1 %49, label %28, label %ff_read_frame_flush.exit, !llvm.loop !87

50:                                               ; preds = %50, %35
  %indvars.iv.i = phi i64 [ 0, %35 ], [ %indvars.iv.next.i, %50 ]
  %51 = getelementptr inbounds nuw [17 x i64], ptr %44, i64 0, i64 %indvars.iv.i
  store i64 -9223372036854775808, ptr %51, align 8, !tbaa !54
  %indvars.iv.next.i = add nuw nsw i64 %indvars.iv.i, 1
  %exitcond.not.i = icmp eq i64 %indvars.iv.next.i, 17
  br i1 %exitcond.not.i, label %45, label %50, !llvm.loop !88

ff_read_frame_flush.exit:                         ; preds = %45
  %52 = icmp eq i32 %1, -1
  br i1 %52, label %53, label %.thread

53:                                               ; preds = %ff_read_frame_flush.exit
  %54 = icmp eq i32 %47, 1
  br i1 %54, label %55, label %.thread

55:                                               ; preds = %53
  %56 = getelementptr inbounds nuw i8, ptr %0, i64 48
  %57 = load ptr, ptr %56, align 8, !tbaa !24
  %58 = load ptr, ptr %57, align 8, !tbaa !33
  %59 = getelementptr inbounds nuw i8, ptr %58, i64 32
  %.sroa.01.0.copyload = load i32, ptr %59, align 8, !tbaa !56
  %.sroa.6.0..sroa_idx = getelementptr inbounds nuw i8, ptr %58, i64 36
  %.sroa.6.0.copyload = load i32, ptr %.sroa.6.0..sroa_idx, align 4, !tbaa !56
  %.sroa.6.0.insert.ext = zext i32 %.sroa.6.0.copyload to i64
  %.sroa.6.0.insert.shift = shl nuw i64 %.sroa.6.0.insert.ext, 32
  %.sroa.01.0.insert.ext = zext i32 %.sroa.01.0.copyload to i64
  %.sroa.01.0.insert.insert = or disjoint i64 %.sroa.6.0.insert.shift, %.sroa.01.0.insert.ext
  %60 = tail call i64 @av_rescale_q(i64 noundef %3, i64 4294967296000001, i64 %.sroa.01.0.insert.insert) #16
  %61 = sext i32 %.sroa.6.0.copyload to i64
  %62 = sext i32 %.sroa.01.0.copyload to i64
  %63 = mul nsw i64 %62, 1000000
  %64 = tail call i64 @av_rescale_rnd(i64 noundef %2, i64 noundef %61, i64 noundef %63, i32 noundef 8195) #16
  %65 = tail call i64 @av_rescale_rnd(i64 noundef %4, i64 noundef %61, i64 noundef %63, i32 noundef 8194) #16
  br label %.thread

.thread:                                          ; preds = %24, %55, %53, %ff_read_frame_flush.exit
  %.065 = phi i64 [ %65, %55 ], [ %4, %53 ], [ %4, %ff_read_frame_flush.exit ], [ %4, %24 ]
  %.062 = phi i64 [ %60, %55 ], [ %3, %53 ], [ %3, %ff_read_frame_flush.exit ], [ %3, %24 ]
  %.061 = phi i64 [ %64, %55 ], [ %2, %53 ], [ %2, %ff_read_frame_flush.exit ], [ %2, %24 ]
  %.060 = phi i32 [ 0, %55 ], [ -1, %53 ], [ %1, %ff_read_frame_flush.exit ], [ %1, %24 ]
  %66 = load ptr, ptr %20, align 8, !tbaa !75
  %67 = getelementptr inbounds nuw i8, ptr %66, i64 136
  %68 = load ptr, ptr %67, align 8, !tbaa !95
  %69 = tail call i32 %68(ptr noundef nonnull %0, i32 noundef %.060, i64 noundef %.061, i64 noundef %.062, i64 noundef %.065, i32 noundef %19) #17
  %70 = icmp sgt i32 %69, -1
  br i1 %70, label %71, label %88

71:                                               ; preds = %.thread
  %72 = tail call i32 @avformat_queue_attached_pictures(ptr noundef nonnull %0) #17
  br label %88

73:                                               ; preds = %14
  %74 = sub i64 %3, %2
  %75 = sub i64 %4, %3
  %76 = icmp ugt i64 %74, %75
  %77 = zext i1 %76 to i32
  %78 = or disjoint i32 %19, %77
  %79 = tail call i32 @av_seek_frame(ptr noundef nonnull %0, i32 noundef %1, i64 noundef %3, i32 noundef %78)
  %80 = icmp sgt i32 %79, -1
  %.not75 = icmp eq i64 %3, %2
  %or.cond77 = or i1 %.not75, %80
  %.not76 = icmp eq i64 %4, %3
  %or.cond78 = or i1 %.not76, %or.cond77
  br i1 %or.cond78, label %88, label %81

81:                                               ; preds = %73
  %82 = select i1 %76, i64 %4, i64 %2
  %83 = tail call i32 @av_seek_frame(ptr noundef nonnull %0, i32 noundef %1, i64 noundef %82, i32 noundef %78)
  %84 = icmp sgt i32 %83, -1
  br i1 %84, label %85, label %88

85:                                               ; preds = %81
  %86 = xor i32 %78, 1
  %87 = tail call i32 @av_seek_frame(ptr noundef nonnull %0, i32 noundef %1, i64 noundef %3, i32 noundef %86)
  br label %88

88:                                               ; preds = %73, %85, %81, %.thread, %71, %9, %11, %6
  %.0 = phi i32 [ -1, %6 ], [ -22, %11 ], [ -22, %9 ], [ %72, %71 ], [ %69, %.thread ], [ %87, %85 ], [ %83, %81 ], [ %79, %73 ]
  ret i32 %.0
}